target datalayout = "e-m:e-p270:32:32-p271:32:32-p272:64:64-i64:64-i128:128-f80:128-n8:16:32:64-S128"
target triple = "x86_64-pc-linux-gnu"

%"class.icu_77::MessagePattern" = type <{ %"class.icu_77::UObject", i32, [4 x i8], %"class.icu_77::UnicodeString", ptr, ptr, i32, [4 x i8], ptr, ptr, i32, i8, i8, i8, i8 }>
%"class.icu_77::UObject" = type { ptr }
%"class.icu_77::UnicodeString" = type { %"class.icu_77::Replaceable", %"union.icu_77::UnicodeString::StackBufferOrFields" }
%"class.icu_77::Replaceable" = type { %"class.icu_77::UObject" }
%"union.icu_77::UnicodeString::StackBufferOrFields" = type { %struct.anon.0, [32 x i8] }
%struct.anon.0 = type { i16, i32, i32, ptr }
%"class.icu_77::MessagePattern::Part" = type { i32, i32, i16, i16, i32 }

; Function Attrs: inlinehint mustprogress uwtable
define linkonce_odr noundef nonnull align 8 dereferenceable(64) ptr @_ZN6icu_7713UnicodeString6insertEiDs(ptr noundef nonnull align 8 dereferenceable(64) %0, i32 noundef %1, i16 noundef zeroext %2) #2 comdat align 2 {
  %4 = alloca ptr, align 8
  %5 = alloca i32, align 4
  %6 = alloca i16, align 2
  store ptr %0, ptr %4, align 8, !tbaa !33
  store i32 %1, ptr %5, align 4, !tbaa !48
  store i16 %2, ptr %6, align 2, !tbaa !59
  %7 = load ptr, ptr %4, align 8
  %8 = load i32, ptr %5, align 4, !tbaa !48
  %9 = call noundef nonnull align 8 dereferenceable(64) ptr @_ZN6icu_7713UnicodeString9doReplaceEiiPKDsii(ptr noundef nonnull align 8 dereferenceable(64) %7, i32 noundef %8, i32 noundef 0, ptr noundef %6, i32 noundef 0, i32 noundef 1)
  ret ptr %9
}

; Function Attrs: mustprogress nounwind uwtable
define linkonce_odr noundef i32 @_ZNK6icu_7714MessagePattern4Part7getTypeEv(ptr noundef nonnull align 4 dereferenceable(16) %0) #5 comdat align 2 {
  %2 = alloca ptr, align 8
  store ptr %0, ptr %2, align 8, !tbaa !70
  %3 = load ptr, ptr %2, align 8
  %4 = getelementptr inbounds nuw %"class.icu_77::MessagePattern::Part", ptr %3, i32 0, i32 0
  %5 = load i32, ptr %4, align 4, !tbaa !71
  ret i32 %5
}

; Function Attrs: mustprogress nounwind uwtable
define linkonce_odr noundef nonnull align 4 dereferenceable(16) ptr @_ZNK6icu_7714MessagePattern7getPartEi(ptr noundef nonnull align 8 dereferenceable(127) %0, i32 noundef %1) #5 comdat align 2 {
  %3 = alloca ptr, align 8
  %4 = alloca i32, align 4
  store ptr %0, ptr %3, align 8, !tbaa !3
  store i32 %1, ptr %4, align 4, !tbaa !48
  %5 = load ptr, ptr %3, align 8
  %6 = getelementptr inbounds nuw %"class.icu_77::MessagePattern", ptr %5, i32 0, i32 5
  %7 = load ptr, ptr %6, align 8, !tbaa !23
  %8 = load i32, ptr %4, align 4, !tbaa !48
  %9 = sext i32 %8 to i64
  %10 = getelementptr inbounds %"class.icu_77::MessagePattern::Part", ptr %7, i64 %9
  ret ptr %10
}

; Function Attrs: mustprogress nounwind uwtable
define linkonce_odr noundef i32 @_ZNK6icu_7714MessagePattern10countPartsEv(ptr noundef nonnull align 8 dereferenceable(127) %0) #5 comdat align 2 {
  %2 = alloca ptr, align 8
  store ptr %0, ptr %2, align 8, !tbaa !3
  %3 = load ptr, ptr %2, align 8
  %4 = getelementptr inbounds nuw %"class.icu_77::MessagePattern", ptr %3, i32 0, i32 6
  %5 = load i32, ptr %4, align 8, !tbaa !24
  ret i32 %5
}

; Function Attrs: mustprogress uwtable
define void @_ZNK6icu_7714MessagePattern23autoQuoteApostropheDeepEv(ptr dead_on_unwind noalias writable sret(%"class.icu_77::UnicodeString") align 8 %0, ptr noundef nonnull align 8 dereferenceable(127) %1) #0 align 2 personality ptr @__gxx_personality_v0 {
  %3 = alloca ptr, align 8
  %4 = alloca ptr, align 8
  %5 = alloca i1, align 1
  %6 = alloca i32, align 4
  %7 = alloca ptr, align 8
  %8 = alloca i32, align 4
  %9 = alloca i32, align 4
  %10 = alloca ptr, align 8
  store ptr %0, ptr %3, align 8
  store ptr %1, ptr %4, align 8, !tbaa !3
  %11 = load ptr, ptr %4, align 8
  %12 = getelementptr inbounds nuw %"class.icu_77::MessagePattern", ptr %11, i32 0, i32 13
  %13 = load i8, ptr %12, align 2, !tbaa !30
  %14 = icmp ne i8 %13, 0
  br i1 %14, label %17, label %15

15:                                               ; preds = %2
  %16 = getelementptr inbounds nuw %"class.icu_77::MessagePattern", ptr %11, i32 0, i32 3
  call void @_ZN6icu_7713UnicodeStringC1ERKS0_(ptr noundef nonnull align 8 dereferenceable(64) %0, ptr noundef nonnull align 8 dereferenceable(64) %16)
  br label %58

17:                                               ; preds = %2
  store i1 false, ptr %5, align 1
  %18 = getelementptr inbounds nuw %"class.icu_77::MessagePattern", ptr %11, i32 0, i32 3
  call void @_ZN6icu_7713UnicodeStringC1ERKS0_(ptr noundef nonnull align 8 dereferenceable(64) %0, ptr noundef nonnull align 8 dereferenceable(64) %18)
  call void @llvm.lifetime.start.p0(i64 4, ptr %6) #12
  %19 = invoke noundef i32 @_ZNK6icu_7714MessagePattern10countPartsEv(ptr noundef nonnull align 8 dereferenceable(127) %11)
          to label %20 unwind label %26

20:                                               ; preds = %17
  store i32 %19, ptr %6, align 4, !tbaa !48
  call void @llvm.lifetime.start.p0(i64 4, ptr %9) #12
  %21 = load i32, ptr %6, align 4, !tbaa !48
  store i32 %21, ptr %9, align 4, !tbaa !48
  br label %22

22:                                               ; preds = %52, %20
  %23 = load i32, ptr %9, align 4, !tbaa !48
  %24 = icmp sgt i32 %23, 0
  br i1 %24, label %30, label %25

25:                                               ; preds = %22
  call void @llvm.lifetime.end.p0(i64 4, ptr %9) #12
  br label %53

26:                                               ; preds = %17
  %27 = landingpad { ptr, i32 }
          cleanup
  %28 = extractvalue { ptr, i32 } %27, 0
  store ptr %28, ptr %7, align 8
  %29 = extractvalue { ptr, i32 } %27, 1
  store i32 %29, ptr %8, align 4
  br label %55

30:                                               ; preds = %22
  call void @llvm.lifetime.start.p0(i64 8, ptr %10) #12
  %31 = load i32, ptr %9, align 4, !tbaa !48
  %32 = add nsw i32 %31, -1
  store i32 %32, ptr %9, align 4, !tbaa !48
  %33 = invoke noundef nonnull align 4 dereferenceable(16) ptr @_ZNK6icu_7714MessagePattern7getPartEi(ptr noundef nonnull align 8 dereferenceable(127) %11, i32 noundef %32)
          to label %34 unwind label %48

34:                                               ; preds = %30
  store ptr %33, ptr %10, align 8, !tbaa !70
  %35 = load ptr, ptr %10, align 8, !tbaa !70
  %36 = invoke noundef i32 @_ZNK6icu_7714MessagePattern4Part7getTypeEv(ptr noundef nonnull align 4 dereferenceable(16) %35)
          to label %37 unwind label %48

37:                                               ; preds = %34
  %38 = icmp eq i32 %36, 3
  br i1 %38, label %39, label %52

39:                                               ; preds = %37
  %40 = load ptr, ptr %10, align 8, !tbaa !70
  %41 = getelementptr inbounds nuw %"class.icu_77::MessagePattern::Part", ptr %40, i32 0, i32 1
  %42 = load i32, ptr %41, align 4, !tbaa !75
  %43 = load ptr, ptr %10, align 8, !tbaa !70
  %44 = getelementptr inbounds nuw %"class.icu_77::MessagePattern::Part", ptr %43, i32 0, i32 3
  %45 = load i16, ptr %44, align 2, !tbaa !77
  %46 = invoke noundef nonnull align 8 dereferenceable(64) ptr @_ZN6icu_7713UnicodeString6insertEiDs(ptr noundef nonnull align 8 dereferenceable(64) %0, i32 noundef %42, i16 noundef zeroext %45)
          to label %47 unwind label %48

47:                                               ; preds = %39
  br label %52

48:                                               ; preds = %39, %34, %30
  %49 = landingpad { ptr, i32 }
          cleanup
  %50 = extractvalue { ptr, i32 } %49, 0
  store ptr %50, ptr %7, align 8
  %51 = extractvalue { ptr, i32 } %49, 1
  store i32 %51, ptr %8, align 4
  call void @llvm.lifetime.end.p0(i64 8, ptr %10) #12
  call void @llvm.lifetime.end.p0(i64 4, ptr %9) #12
  br label %55

52:                                               ; preds = %47, %37
  call void @llvm.lifetime.end.p0(i64 8, ptr %10) #12
  br label %22, !llvm.loop !79

53:                                               ; preds = %25
  store i1 true, ptr %5, align 1
  call void @llvm.lifetime.end.p0(i64 4, ptr %6) #12
  %54 = load i1, ptr %5, align 1
  br i1 %54, label %57, label %56

55:                                               ; preds = %48, %26
  call void @llvm.lifetime.end.p0(i64 4, ptr %6) #12
  call void @_ZN6icu_7713UnicodeStringD1Ev(ptr noundef nonnull align 8 dereferenceable(64) %0) #12
  br label %59

56:                                               ; preds = %53
  call void @_ZN6icu_7713UnicodeStringD1Ev(ptr noundef nonnull align 8 dereferenceable(64) %0) #12
  br label %57

57:                                               ; preds = %56, %53
  br label %58

58:                                               ; preds = %57, %15
  ret void

59:                                               ; preds = %55
  %60 = load ptr, ptr %7, align 8
  %61 = load i32, ptr %8, align 4
  %62 = insertvalue { ptr, i32 } poison, ptr %60, 0
  %63 = insertvalue { ptr, i32 } %62, i32 %61, 1
  resume { ptr, i32 } %63
}