; Function Attrs: mustprogress uwtable
define void @_ZNK6icu_7714MessagePattern23autoQuoteApostropheDeepEv(ptr dead_on_unwind noalias nonnull writable sret(%"class.icu_77::UnicodeString") align 8 %0, ptr noundef nonnull align 8 dereferenceable(127) %1) local_unnamed_addr #2 align 2 personality ptr @__gxx_personality_v0 {
  %3 = alloca i16, align 2
  %4 = getelementptr inbounds nuw i8, ptr %1, i64 126
  %5 = load i8, ptr %4, align 2, !tbaa !39
  %.not = icmp eq i8 %5, 0
  %6 = getelementptr inbounds nuw i8, ptr %1, i64 16
  tail call void @_ZN6icu_7713UnicodeStringC1ERKS0_(ptr noundef nonnull align 8 dereferenceable(64) %0, ptr noundef nonnull align 8 dereferenceable(64) %6)
  br i1 %.not, label %.loopexit, label %7

7:                                                ; preds = %2
  %8 = getelementptr inbounds nuw i8, ptr %1, i64 96
  %9 = load i32, ptr %8, align 8, !tbaa !32
  %10 = icmp sgt i32 %9, 0
  br i1 %10, label %.lr.ph, label %.loopexit

.lr.ph:                                           ; preds = %7
  %11 = getelementptr inbounds nuw i8, ptr %1, i64 88
  %12 = zext nneg i32 %9 to i64
  br label %13

13:                                               ; preds = %.lr.ph, %26
  %indvars.iv = phi i64 [ %12, %.lr.ph ], [ %indvars.iv.next, %26 ]
  %indvars.iv.next = add nsw i64 %indvars.iv, -1
  %14 = load ptr, ptr %11, align 8, !tbaa !26
  %15 = getelementptr inbounds nuw %"class.icu_77::MessagePattern::Part", ptr %14, i64 %indvars.iv.next
  %16 = load i32, ptr %15, align 4, !tbaa !44
  %17 = icmp eq i32 %16, 3
  br i1 %17, label %18, label %26

18:                                               ; preds = %13
  %19 = getelementptr inbounds nuw i8, ptr %15, i64 4
  %20 = load i32, ptr %19, align 4, !tbaa !48
  %21 = getelementptr inbounds nuw i8, ptr %15, i64 10
  %22 = load i16, ptr %21, align 2, !tbaa !50
  call void @llvm.lifetime.start.p0(i64 2, ptr nonnull %3)
  store i16 %22, ptr %3, align 2, !tbaa !30
  %23 = invoke noundef nonnull align 8 dereferenceable(64) ptr @_ZN6icu_7713UnicodeString9doReplaceEiiPKDsii(ptr noundef nonnull align 8 dereferenceable(64) %0, i32 noundef %20, i32 noundef 0, ptr noundef nonnull %3, i32 noundef 0, i32 noundef 1)
          to label %_ZN6icu_7713UnicodeString6insertEiDs.exit unwind label %24

_ZN6icu_7713UnicodeString6insertEiDs.exit:        ; preds = %18
  call void @llvm.lifetime.end.p0(i64 2, ptr nonnull %3)
  br label %26

24:                                               ; preds = %18
  %25 = landingpad { ptr, i32 }
          cleanup
  call void @_ZN6icu_7713UnicodeStringD1Ev(ptr noundef nonnull align 8 dereferenceable(64) %0) #18
  resume { ptr, i32 } %25

26:                                               ; preds = %_ZN6icu_7713UnicodeString6insertEiDs.exit, %13
  %27 = icmp samesign ugt i64 %indvars.iv, 1
  br i1 %27, label %13, label %.loopexit, !llvm.loop !61

.loopexit:                                        ; preds = %26, %2, %7
  ret void
}